target datalayout = "e-m:e-p270:32:32-p271:32:32-p272:64:64-i64:64-i128:128-f80:128-n8:16:32:64-S128"
target triple = "x86_64-pc-linux-gnu"

; Function Attrs: nounwind uwtable
define internal void @_ctld_free_list_msg(ptr noundef %0) #0 {
  %2 = alloca ptr, align 8
  store ptr %0, ptr %2, align 8
  br label %3

3:                                                ; preds = %1
  %4 = load ptr, ptr %2, align 8
  %5 = icmp ne ptr %4, null
  br i1 %5, label %6, label %8

6:                                                ; preds = %3
  %7 = load ptr, ptr %2, align 8
  call void @free_buf(ptr noundef %7)
  br label %8

8:                                                ; preds = %6, %3
  store ptr null, ptr %2, align 8
  br label %9

9:                                                ; preds = %8
  ret void
}