; Function Attrs: nounwind uwtable
define internal void @_ctld_free_list_msg(ptr noundef %0) #0 {
  %.not = icmp eq ptr %0, null
  br i1 %.not, label %3, label %2

2:                                                ; preds = %1
  tail call void @free_buf(ptr noundef nonnull %0) #7
  br label %3

3:                                                ; preds = %2, %1
  ret void
}